target datalayout = "e-m:e-p270:32:32-p271:32:32-p272:64:64-i64:64-i128:128-f80:128-n8:16:32:64-S128"
target triple = "x86_64-pc-linux-gnu"

%struct.cimd_parameter_t = type { ptr, ptr, ptr }
%struct._value_string = type { i32, ptr }

@hf_cimd_pcode_indicator = internal global i32 0, align 4
@vals_hdr_PC = internal global [38 x %struct.cimd_parameter_t] zeroinitializer, align 16

; Function Attrs: null_pointer_is_valid sspstrong uwtable
define internal void @dissect_cimd_error_code(ptr noundef %0, ptr noundef %1, i32 noundef %2, i32 noundef %3, i32 noundef %4) #0 {
  %6 = alloca ptr, align 8
  %7 = alloca ptr, align 8
  %8 = alloca i32, align 4
  %9 = alloca i32, align 4
  %10 = alloca i32, align 4
  %11 = alloca ptr, align 8
  %12 = alloca i32, align 4
  store ptr %0, ptr %6, align 8
  store ptr %1, ptr %7, align 8
  store i32 %2, ptr %8, align 4
  store i32 %3, ptr %9, align 4
  store i32 %4, ptr %10, align 4
  call void @llvm.lifetime.start.p0(i64 8, ptr %11) #4
  call void @llvm.lifetime.start.p0(i64 4, ptr %12) #4
  %13 = load ptr, ptr %7, align 8
  %14 = load ptr, ptr %6, align 8
  %15 = load i32, ptr %9, align 4
  %16 = add i32 %15, 1
  %17 = load i32, ptr %10, align 4
  %18 = load i32, ptr %9, align 4
  %19 = add i32 %18, 1
  %20 = sub i32 %17, %19
  %21 = load i32, ptr %8, align 4
  %22 = sext i32 %21 to i64
  %23 = getelementptr [38 x %struct.cimd_parameter_t], ptr @vals_hdr_PC, i64 0, i64 %22
  %24 = getelementptr inbounds nuw %struct.cimd_parameter_t, ptr %23, i32 0, i32 1
  %25 = load ptr, ptr %24, align 8
  %26 = load i32, ptr %25, align 4
  %27 = load i32, ptr %8, align 4
  %28 = sext i32 %27 to i64
  %29 = getelementptr [38 x %struct._value_string], ptr @cimd_vals_PC, i64 0, i64 %28
  %30 = getelementptr inbounds nuw %struct._value_string, ptr %29, i32 0, i32 1
  %31 = load ptr, ptr %30, align 8
  %32 = call ptr @proto_tree_add_subtree(ptr noundef %13, ptr noundef %14, i32 noundef %16, i32 noundef %20, i32 noundef %26, ptr noundef null, ptr noundef %31)
  store ptr %32, ptr %11, align 8
  %33 = load ptr, ptr %11, align 8
  %34 = load i32, ptr @hf_cimd_pcode_indicator, align 4
  %35 = load ptr, ptr %6, align 8
  %36 = load i32, ptr %9, align 4
  %37 = add i32 %36, 1
  %38 = call ptr @proto_tree_add_item(ptr noundef %33, i32 noundef %34, ptr noundef %35, i32 noundef %37, i32 noundef 3, i32 noundef 0)
  %39 = call ptr @wmem_packet_scope()
  %40 = load ptr, ptr %6, align 8
  %41 = load i32, ptr %9, align 4
  %42 = add i32 %41, 1
  %43 = add i32 %42, 3
  %44 = add i32 %43, 1
  %45 = load i32, ptr %10, align 4
  %46 = load i32, ptr %9, align 4
  %47 = add i32 %46, 1
  %48 = add i32 %47, 3
  %49 = add i32 %48, 1
  %50 = sub i32 %45, %49
  %51 = call ptr @tvb_get_string_enc(ptr noundef %39, ptr noundef %40, i32 noundef %44, i32 noundef %50, i32 noundef 0)
  %52 = call i64 @strtoul(ptr noundef %51, ptr noundef null, i32 noundef 10) #4
  %53 = trunc i64 %52 to i32
  store i32 %53, ptr %12, align 4
  %54 = load ptr, ptr %11, align 8
  %55 = load i32, ptr %8, align 4
  %56 = sext i32 %55 to i64
  %57 = getelementptr [38 x %struct.cimd_parameter_t], ptr @vals_hdr_PC, i64 0, i64 %56
  %58 = getelementptr inbounds nuw %struct.cimd_parameter_t, ptr %57, i32 0, i32 2
  %59 = load ptr, ptr %58, align 8
  %60 = load i32, ptr %59, align 4
  %61 = load ptr, ptr %6, align 8
  %62 = load i32, ptr %9, align 4
  %63 = add i32 %62, 1
  %64 = add i32 %63, 3
  %65 = add i32 %64, 1
  %66 = load i32, ptr %10, align 4
  %67 = load i32, ptr %9, align 4
  %68 = add i32 %67, 1
  %69 = add i32 %68, 3
  %70 = add i32 %69, 1
  %71 = sub i32 %66, %70
  %72 = load i32, ptr %12, align 4
  %73 = call ptr @proto_tree_add_uint(ptr noundef %54, i32 noundef %60, ptr noundef %61, i32 noundef %65, i32 noundef %71, i32 noundef %72)
  call void @llvm.lifetime.end.p0(i64 4, ptr %12) #4
  call void @llvm.lifetime.end.p0(i64 8, ptr %11) #4
  ret void
}