; Function Attrs: null_pointer_is_valid sspstrong uwtable
define internal void @dissect_cimd_error_code(ptr noundef %0, ptr noundef %1, i32 noundef %2, i32 noundef %3, i32 noundef %4) #0 {
  %6 = add i32 %3, 1
  %7 = sub i32 %4, %6
  %8 = sext i32 %2 to i64
  %9 = getelementptr [38 x %struct.cimd_parameter_t], ptr @vals_hdr_PC, i64 0, i64 %8
  %10 = getelementptr inbounds nuw i8, ptr %9, i64 8
  %11 = load ptr, ptr %10, align 8
  %12 = load i32, ptr %11, align 4
  %13 = getelementptr [38 x %struct._value_string], ptr @cimd_vals_PC, i64 0, i64 %8, i32 1
  %14 = load ptr, ptr %13, align 8
  %15 = tail call ptr @proto_tree_add_subtree(ptr noundef %1, ptr noundef %0, i32 noundef %6, i32 noundef %7, i32 noundef %12, ptr noundef null, ptr noundef %14)
  %16 = load i32, ptr @hf_cimd_pcode_indicator, align 4
  %17 = tail call ptr @proto_tree_add_item(ptr noundef %15, i32 noundef %16, ptr noundef %0, i32 noundef %6, i32 noundef 3, i32 noundef 0)
  %18 = tail call ptr @wmem_packet_scope()
  %19 = add i32 %3, 5
  %20 = sub i32 %4, %19
  %21 = tail call ptr @tvb_get_string_enc(ptr noundef %18, ptr noundef %0, i32 noundef %19, i32 noundef %20, i32 noundef 0)
  %22 = tail call i64 @strtoul(ptr noundef captures(none) %21, ptr noundef null, i32 noundef 10) #4
  %23 = trunc i64 %22 to i32
  %24 = getelementptr inbounds nuw i8, ptr %9, i64 16
  %25 = load ptr, ptr %24, align 8
  %26 = load i32, ptr %25, align 4
  %27 = tail call ptr @proto_tree_add_uint(ptr noundef %15, i32 noundef %26, ptr noundef %0, i32 noundef %19, i32 noundef %20, i32 noundef %23)
  ret void
}